target datalayout = "e-m:e-p270:32:32-p271:32:32-p272:64:64-i64:64-i128:128-f80:128-n8:16:32:64-S128"
target triple = "x86_64-pc-linux-gnu"

%struct.dh_st = type { i32, i32, %struct.ffc_params_st, i32, ptr, ptr, i32, ptr, %struct.CRYPTO_REF_COUNT, %struct.crypto_ex_data_st, ptr, ptr, ptr, ptr, i64 }
%struct.ffc_params_st = type { ptr, ptr, ptr, ptr, ptr, i64, i32, i32, i32, i32, i32, ptr, ptr, i32 }
%struct.CRYPTO_REF_COUNT = type { i32 }
%struct.crypto_ex_data_st = type { ptr, ptr }
%struct.int_dhx942_dh = type { ptr, ptr, ptr, ptr, ptr }
%struct.int_dhvparams = type { ptr, ptr }
%struct.asn1_string_st = type { i32, i32, ptr, i64 }

@.str.1 = private unnamed_addr constant [31 x i8] c"../openssl/crypto/dh/dh_asn1.c\00", align 1
@DHxparams_it.local_it = internal constant { i8, [7 x i8], i64, ptr, i64, ptr, i64, ptr } { i8 1, [7 x i8] zeroinitializer, i64 16, ptr @DHxparams_seq_tt, i64 5, ptr null, i64 40, ptr @.str.6 }, align 8

; Function Attrs: nounwind uwtable
define internal ptr @DHxparams_it() #0 {
  ret ptr @DHxparams_it.local_it
}

; Function Attrs: nounwind uwtable
define ptr @d2i_int_dhx(ptr noundef %0, ptr noundef %1, i64 noundef %2) #0 {
  %4 = alloca ptr, align 8
  %5 = alloca ptr, align 8
  %6 = alloca i64, align 8
  store ptr %0, ptr %4, align 8, !tbaa !14
  store ptr %1, ptr %5, align 8, !tbaa !8
  store i64 %2, ptr %6, align 8, !tbaa !10
  %7 = load ptr, ptr %4, align 8, !tbaa !14
  %8 = load ptr, ptr %5, align 8, !tbaa !8
  %9 = load i64, ptr %6, align 8, !tbaa !10
  %10 = call ptr @DHxparams_it()
  %11 = call ptr @ASN1_item_d2i(ptr noundef %7, ptr noundef %8, i64 noundef %9, ptr noundef %10)
  ret ptr %11
}

; Function Attrs: nounwind uwtable
define ptr @d2i_DHxparams(ptr noundef %0, ptr noundef %1, i64 noundef %2) #0 {
  %4 = alloca ptr, align 8
  %5 = alloca ptr, align 8
  %6 = alloca ptr, align 8
  %7 = alloca i64, align 8
  %8 = alloca ptr, align 8
  %9 = alloca ptr, align 8
  %10 = alloca ptr, align 8
  %11 = alloca i32, align 4
  %12 = alloca i64, align 8
  store ptr %0, ptr %5, align 8, !tbaa !3
  store ptr %1, ptr %6, align 8, !tbaa !8
  store i64 %2, ptr %7, align 8, !tbaa !10
  call void @llvm.lifetime.start.p0(i64 8, ptr %8) #4
  call void @llvm.lifetime.start.p0(i64 8, ptr %9) #4
  store ptr null, ptr %9, align 8, !tbaa !14
  call void @llvm.lifetime.start.p0(i64 8, ptr %10) #4
  store ptr null, ptr %10, align 8, !tbaa !12
  %13 = call ptr @DH_new()
  store ptr %13, ptr %10, align 8, !tbaa !12
  %14 = load ptr, ptr %10, align 8, !tbaa !12
  %15 = icmp eq ptr %14, null
  br i1 %15, label %16, label %17

16:                                               ; preds = %3
  store ptr null, ptr %4, align 8
  store i32 1, ptr %11, align 4
  br label %101

17:                                               ; preds = %3
  %18 = load ptr, ptr %6, align 8, !tbaa !8
  %19 = load i64, ptr %7, align 8, !tbaa !10
  %20 = call ptr @d2i_int_dhx(ptr noundef null, ptr noundef %18, i64 noundef %19)
  store ptr %20, ptr %9, align 8, !tbaa !14
  %21 = load ptr, ptr %9, align 8, !tbaa !14
  %22 = icmp eq ptr %21, null
  br i1 %22, label %23, label %25

23:                                               ; preds = %17
  %24 = load ptr, ptr %10, align 8, !tbaa !12
  call void @DH_free(ptr noundef %24)
  store ptr null, ptr %4, align 8
  store i32 1, ptr %11, align 4
  br label %101

25:                                               ; preds = %17
  %26 = load ptr, ptr %5, align 8, !tbaa !3
  %27 = icmp ne ptr %26, null
  br i1 %27, label %28, label %33

28:                                               ; preds = %25
  %29 = load ptr, ptr %5, align 8, !tbaa !3
  %30 = load ptr, ptr %29, align 8, !tbaa !12
  call void @DH_free(ptr noundef %30)
  %31 = load ptr, ptr %10, align 8, !tbaa !12
  %32 = load ptr, ptr %5, align 8, !tbaa !3
  store ptr %31, ptr %32, align 8, !tbaa !12
  br label %33

33:                                               ; preds = %28, %25
  %34 = load ptr, ptr %10, align 8, !tbaa !12
  %35 = getelementptr inbounds nuw %struct.dh_st, ptr %34, i32 0, i32 2
  store ptr %35, ptr %8, align 8, !tbaa !15
  %36 = load ptr, ptr %10, align 8, !tbaa !12
  %37 = load ptr, ptr %9, align 8, !tbaa !14
  %38 = getelementptr inbounds nuw %struct.int_dhx942_dh, ptr %37, i32 0, i32 0
  %39 = load ptr, ptr %38, align 8, !tbaa !17
  %40 = load ptr, ptr %9, align 8, !tbaa !14
  %41 = getelementptr inbounds nuw %struct.int_dhx942_dh, ptr %40, i32 0, i32 1
  %42 = load ptr, ptr %41, align 8, !tbaa !20
  %43 = load ptr, ptr %9, align 8, !tbaa !14
  %44 = getelementptr inbounds nuw %struct.int_dhx942_dh, ptr %43, i32 0, i32 2
  %45 = load ptr, ptr %44, align 8, !tbaa !21
  %46 = call i32 @DH_set0_pqg(ptr noundef %36, ptr noundef %39, ptr noundef %42, ptr noundef %45)
  %47 = load ptr, ptr %8, align 8, !tbaa !15
  %48 = load ptr, ptr %9, align 8, !tbaa !14
  %49 = getelementptr inbounds nuw %struct.int_dhx942_dh, ptr %48, i32 0, i32 3
  %50 = load ptr, ptr %49, align 8, !tbaa !22
  call void @ossl_ffc_params_set0_j(ptr noundef %47, ptr noundef %50)
  %51 = load ptr, ptr %9, align 8, !tbaa !14
  %52 = getelementptr inbounds nuw %struct.int_dhx942_dh, ptr %51, i32 0, i32 4
  %53 = load ptr, ptr %52, align 8, !tbaa !23
  %54 = icmp ne ptr %53, null
  br i1 %54, label %55, label %96

55:                                               ; preds = %33
  call void @llvm.lifetime.start.p0(i64 8, ptr %12) #4
  %56 = load ptr, ptr %9, align 8, !tbaa !14
  %57 = getelementptr inbounds nuw %struct.int_dhx942_dh, ptr %56, i32 0, i32 4
  %58 = load ptr, ptr %57, align 8, !tbaa !23
  %59 = getelementptr inbounds nuw %struct.int_dhvparams, ptr %58, i32 0, i32 1
  %60 = load ptr, ptr %59, align 8, !tbaa !24
  %61 = call i64 @BN_get_word(ptr noundef %60)
  store i64 %61, ptr %12, align 8, !tbaa !10
  %62 = load ptr, ptr %8, align 8, !tbaa !15
  %63 = load ptr, ptr %9, align 8, !tbaa !14
  %64 = getelementptr inbounds nuw %struct.int_dhx942_dh, ptr %63, i32 0, i32 4
  %65 = load ptr, ptr %64, align 8, !tbaa !23
  %66 = getelementptr inbounds nuw %struct.int_dhvparams, ptr %65, i32 0, i32 0
  %67 = load ptr, ptr %66, align 8, !tbaa !27
  %68 = getelementptr inbounds nuw %struct.asn1_string_st, ptr %67, i32 0, i32 2
  %69 = load ptr, ptr %68, align 8, !tbaa !28
  %70 = load ptr, ptr %9, align 8, !tbaa !14
  %71 = getelementptr inbounds nuw %struct.int_dhx942_dh, ptr %70, i32 0, i32 4
  %72 = load ptr, ptr %71, align 8, !tbaa !23
  %73 = getelementptr inbounds nuw %struct.int_dhvparams, ptr %72, i32 0, i32 0
  %74 = load ptr, ptr %73, align 8, !tbaa !27
  %75 = getelementptr inbounds nuw %struct.asn1_string_st, ptr %74, i32 0, i32 0
  %76 = load i32, ptr %75, align 8, !tbaa !32
  %77 = sext i32 %76 to i64
  %78 = load i64, ptr %12, align 8, !tbaa !10
  %79 = trunc i64 %78 to i32
  %80 = call i32 @ossl_ffc_params_set_validate_params(ptr noundef %62, ptr noundef %69, i64 noundef %77, i32 noundef %79)
  %81 = load ptr, ptr %9, align 8, !tbaa !14
  %82 = getelementptr inbounds nuw %struct.int_dhx942_dh, ptr %81, i32 0, i32 4
  %83 = load ptr, ptr %82, align 8, !tbaa !23
  %84 = getelementptr inbounds nuw %struct.int_dhvparams, ptr %83, i32 0, i32 0
  %85 = load ptr, ptr %84, align 8, !tbaa !27
  call void @ASN1_BIT_STRING_free(ptr noundef %85)
  %86 = load ptr, ptr %9, align 8, !tbaa !14
  %87 = getelementptr inbounds nuw %struct.int_dhx942_dh, ptr %86, i32 0, i32 4
  %88 = load ptr, ptr %87, align 8, !tbaa !23
  %89 = getelementptr inbounds nuw %struct.int_dhvparams, ptr %88, i32 0, i32 1
  %90 = load ptr, ptr %89, align 8, !tbaa !24
  call void @BN_free(ptr noundef %90)
  %91 = load ptr, ptr %9, align 8, !tbaa !14
  %92 = getelementptr inbounds nuw %struct.int_dhx942_dh, ptr %91, i32 0, i32 4
  %93 = load ptr, ptr %92, align 8, !tbaa !23
  call void @CRYPTO_free(ptr noundef %93, ptr noundef @.str.1, i32 noundef 125)
  %94 = load ptr, ptr %9, align 8, !tbaa !14
  %95 = getelementptr inbounds nuw %struct.int_dhx942_dh, ptr %94, i32 0, i32 4
  store ptr null, ptr %95, align 8, !tbaa !23
  call void @llvm.lifetime.end.p0(i64 8, ptr %12) #4
  br label %96

96:                                               ; preds = %55, %33
  %97 = load ptr, ptr %9, align 8, !tbaa !14
  call void @CRYPTO_free(ptr noundef %97, ptr noundef @.str.1, i32 noundef 129)
  %98 = load ptr, ptr %10, align 8, !tbaa !12
  call void @DH_clear_flags(ptr noundef %98, i32 noundef 61440)
  %99 = load ptr, ptr %10, align 8, !tbaa !12
  call void @DH_set_flags(ptr noundef %99, i32 noundef 4096)
  %100 = load ptr, ptr %10, align 8, !tbaa !12
  store ptr %100, ptr %4, align 8
  store i32 1, ptr %11, align 4
  br label %101

101:                                              ; preds = %96, %23, %16
  call void @llvm.lifetime.end.p0(i64 8, ptr %10) #4
  call void @llvm.lifetime.end.p0(i64 8, ptr %9) #4
  call void @llvm.lifetime.end.p0(i64 8, ptr %8) #4
  %102 = load ptr, ptr %4, align 8
  ret ptr %102
}