; Function Attrs: nounwind uwtable
define ptr @d2i_DHxparams(ptr noundef captures(address_is_null) %0, ptr noundef %1, i64 noundef %2) local_unnamed_addr #1 {
  %4 = tail call ptr @DH_new() #5
  %5 = icmp eq ptr %4, null
  br i1 %5, label %44, label %6

6:                                                ; preds = %3
  %7 = tail call ptr @ASN1_item_d2i(ptr noundef null, ptr noundef %1, i64 noundef %2, ptr noundef nonnull @DHxparams_it.local_it) #5
  %8 = icmp eq ptr %7, null
  br i1 %8, label %9, label %10

9:                                                ; preds = %6
  tail call void @DH_free(ptr noundef nonnull %4) #5
  br label %44

10:                                               ; preds = %6
  %.not = icmp eq ptr %0, null
  br i1 %.not, label %13, label %11

11:                                               ; preds = %10
  %12 = load ptr, ptr %0, align 8, !tbaa !3
  tail call void @DH_free(ptr noundef %12) #5
  store ptr %4, ptr %0, align 8, !tbaa !3
  br label %13

13:                                               ; preds = %11, %10
  %14 = getelementptr inbounds nuw i8, ptr %4, i64 8
  %15 = load ptr, ptr %7, align 8, !tbaa !8
  %16 = getelementptr inbounds nuw i8, ptr %7, i64 8
  %17 = load ptr, ptr %16, align 8, !tbaa !11
  %18 = getelementptr inbounds nuw i8, ptr %7, i64 16
  %19 = load ptr, ptr %18, align 8, !tbaa !12
  %20 = tail call i32 @DH_set0_pqg(ptr noundef nonnull %4, ptr noundef %15, ptr noundef %17, ptr noundef %19) #5
  %21 = getelementptr inbounds nuw i8, ptr %7, i64 24
  %22 = load ptr, ptr %21, align 8, !tbaa !13
  tail call void @ossl_ffc_params_set0_j(ptr noundef nonnull %14, ptr noundef %22) #5
  %23 = getelementptr inbounds nuw i8, ptr %7, i64 32
  %24 = load ptr, ptr %23, align 8, !tbaa !14
  %.not34 = icmp eq ptr %24, null
  br i1 %.not34, label %43, label %25

25:                                               ; preds = %13
  %26 = getelementptr inbounds nuw i8, ptr %24, i64 8
  %27 = load ptr, ptr %26, align 8, !tbaa !15
  %28 = tail call i64 @BN_get_word(ptr noundef %27) #5
  %29 = load ptr, ptr %23, align 8, !tbaa !14
  %30 = load ptr, ptr %29, align 8, !tbaa !18
  %31 = getelementptr inbounds nuw i8, ptr %30, i64 8
  %32 = load ptr, ptr %31, align 8, !tbaa !19
  %33 = load i32, ptr %30, align 8, !tbaa !24
  %34 = sext i32 %33 to i64
  %35 = trunc i64 %28 to i32
  %36 = tail call i32 @ossl_ffc_params_set_validate_params(ptr noundef nonnull %14, ptr noundef %32, i64 noundef %34, i32 noundef %35) #5
  %37 = load ptr, ptr %23, align 8, !tbaa !14
  %38 = load ptr, ptr %37, align 8, !tbaa !18
  tail call void @ASN1_BIT_STRING_free(ptr noundef %38) #5
  %39 = load ptr, ptr %23, align 8, !tbaa !14
  %40 = getelementptr inbounds nuw i8, ptr %39, i64 8
  %41 = load ptr, ptr %40, align 8, !tbaa !15
  tail call void @BN_free(ptr noundef %41) #5
  %42 = load ptr, ptr %23, align 8, !tbaa !14
  tail call void @CRYPTO_free(ptr noundef %42, ptr noundef nonnull @.str.1, i32 noundef 125) #5
  store ptr null, ptr %23, align 8, !tbaa !14
  br label %43

43:                                               ; preds = %25, %13
  tail call void @CRYPTO_free(ptr noundef nonnull %7, ptr noundef nonnull @.str.1, i32 noundef 129) #5
  tail call void @DH_clear_flags(ptr noundef nonnull %4, i32 noundef 61440) #5
  tail call void @DH_set_flags(ptr noundef nonnull %4, i32 noundef 4096) #5
  br label %44

44:                                               ; preds = %3, %43, %9
  %.0 = phi ptr [ null, %9 ], [ %4, %43 ], [ null, %3 ]
  ret ptr %.0
}